target datalayout = "e-m:e-p270:32:32-p271:32:32-p272:64:64-i64:64-i128:128-f80:128-n8:16:32:64-S128"
target triple = "x86_64-pc-linux-gnu"

%"class.icu_77::UnicodeString" = type { %"class.icu_77::Replaceable", %"union.icu_77::UnicodeString::StackBufferOrFields" }
%"class.icu_77::Replaceable" = type { %"class.icu_77::UObject" }
%"class.icu_77::UObject" = type { ptr }
%"union.icu_77::UnicodeString::StackBufferOrFields" = type { %struct.anon.0, [32 x i8] }
%struct.anon.0 = type { i16, i32, i32, ptr }
%"class.icu_77::DecimalFormat" = type { %"class.icu_77::NumberFormat.base", ptr }
%"class.icu_77::NumberFormat.base" = type <{ %"class.icu_77::Format", i8, [3 x i8], i32, i32, i32, i32, i8, i8, [4 x i16], [2 x i8], i32 }>
%"class.icu_77::Format" = type { %"class.icu_77::UObject", ptr, ptr }
%"class.icu_77::ErrorCode" = type <{ ptr, i32, [4 x i8] }>

@_ZTVN6icu_779ErrorCodeE = external unnamed_addr constant { [5 x ptr] }, align 8

; Function Attrs: mustprogress nounwind uwtable
define linkonce_odr noundef nonnull align 4 dereferenceable(4) ptr @_ZN6icu_779ErrorCodecvR10UErrorCodeEv(ptr noundef nonnull align 8 dereferenceable(12) %0) #0 comdat align 2 {
  %2 = alloca ptr, align 8
  store ptr %0, ptr %2, align 8, !tbaa !245
  %3 = load ptr, ptr %2, align 8
  %4 = getelementptr inbounds nuw %"class.icu_77::ErrorCode", ptr %3, i32 0, i32 1
  ret ptr %4
}

; Function Attrs: mustprogress nounwind uwtable
define linkonce_odr void @_ZN6icu_779ErrorCodeC2Ev(ptr noundef nonnull align 8 dereferenceable(12) %0) unnamed_addr #0 comdat align 2 {
  %2 = alloca ptr, align 8
  store ptr %0, ptr %2, align 8, !tbaa !245
  %3 = load ptr, ptr %2, align 8
  store ptr getelementptr inbounds inrange(-16, 24) ({ [5 x ptr] }, ptr @_ZTVN6icu_779ErrorCodeE, i32 0, i32 0, i32 2), ptr %3, align 8, !tbaa !29
  %4 = getelementptr inbounds nuw %"class.icu_77::ErrorCode", ptr %3, i32 0, i32 1
  store i32 0, ptr %4, align 8, !tbaa !247
  ret void
}

; Function Attrs: mustprogress uwtable
define noundef nonnull align 8 dereferenceable(64) ptr @_ZNK6icu_7713DecimalFormat18toLocalizedPatternERNS_13UnicodeStringE(ptr noundef nonnull align 8 dereferenceable(72) %0, ptr noundef nonnull align 8 dereferenceable(64) %1) unnamed_addr #1 align 2 personality ptr @__gxx_personality_v0 {
  %3 = alloca ptr, align 8
  %4 = alloca ptr, align 8
  %5 = alloca ptr, align 8
  %6 = alloca %"class.icu_77::ErrorCode", align 8
  %7 = alloca ptr, align 8
  %8 = alloca i32, align 4
  %9 = alloca %"class.icu_77::UnicodeString", align 8
  store ptr %0, ptr %4, align 8, !tbaa !23
  store ptr %1, ptr %5, align 8, !tbaa !51
  %10 = load ptr, ptr %4, align 8
  %11 = getelementptr inbounds nuw %"class.icu_77::DecimalFormat", ptr %10, i32 0, i32 1
  %12 = load ptr, ptr %11, align 8, !tbaa !31
  %13 = icmp eq ptr %12, null
  br i1 %13, label %14, label %17

14:                                               ; preds = %2
  %15 = load ptr, ptr %5, align 8, !tbaa !51
  call void @_ZN6icu_7713UnicodeString10setToBogusEv(ptr noundef nonnull align 8 dereferenceable(64) %15)
  %16 = load ptr, ptr %5, align 8, !tbaa !51
  store ptr %16, ptr %3, align 8
  br label %48

17:                                               ; preds = %2
  call void @llvm.lifetime.start.p0(i64 16, ptr %6) #15
  call void @_ZN6icu_779ErrorCodeC2Ev(ptr noundef nonnull align 8 dereferenceable(12) %6)
  %18 = load ptr, ptr %5, align 8, !tbaa !51
  %19 = load ptr, ptr %10, align 8, !tbaa !29
  %20 = getelementptr inbounds ptr, ptr %19, i64 68
  %21 = load ptr, ptr %20, align 8
  %22 = invoke noundef nonnull align 8 dereferenceable(64) ptr %21(ptr noundef nonnull align 8 dereferenceable(72) %10, ptr noundef nonnull align 8 dereferenceable(64) %18)
          to label %23 unwind label %39

23:                                               ; preds = %17
  %24 = load ptr, ptr %5, align 8, !tbaa !51
  %25 = invoke noundef nonnull align 8 dereferenceable(64) ptr @_ZN6icu_7713UnicodeStringaSERKS0_(ptr noundef nonnull align 8 dereferenceable(64) %24, ptr noundef nonnull align 8 dereferenceable(64) %22)
          to label %26 unwind label %39

26:                                               ; preds = %23
  call void @llvm.lifetime.start.p0(i64 64, ptr %9) #15
  %27 = load ptr, ptr %5, align 8, !tbaa !51
  %28 = load ptr, ptr %10, align 8, !tbaa !29
  %29 = getelementptr inbounds ptr, ptr %28, i64 39
  %30 = load ptr, ptr %29, align 8
  %31 = invoke noundef ptr %30(ptr noundef nonnull align 8 dereferenceable(72) %10)
          to label %32 unwind label %43

32:                                               ; preds = %26
  %33 = invoke noundef nonnull align 4 dereferenceable(4) ptr @_ZN6icu_779ErrorCodecvR10UErrorCodeEv(ptr noundef nonnull align 8 dereferenceable(12) %6)
          to label %34 unwind label %43

34:                                               ; preds = %32
  invoke void @_ZN6icu_776number4impl18PatternStringUtils16convertLocalizedERKNS_13UnicodeStringERKNS_20DecimalFormatSymbolsEbR10UErrorCode(ptr dead_on_unwind writable sret(%"class.icu_77::UnicodeString") align 8 %9, ptr noundef nonnull align 8 dereferenceable(64) %27, ptr noundef nonnull align 8 dereferenceable(2579) %31, i1 noundef zeroext true, ptr noundef nonnull align 4 dereferenceable(4) %33)
          to label %35 unwind label %43

35:                                               ; preds = %34
  %36 = load ptr, ptr %5, align 8, !tbaa !51
  %37 = call noundef nonnull align 8 dereferenceable(64) ptr @_ZN6icu_7713UnicodeStringaSEOS0_(ptr noundef nonnull align 8 dereferenceable(64) %36, ptr noundef nonnull align 8 dereferenceable(64) %9) #15
  call void @_ZN6icu_7713UnicodeStringD1Ev(ptr noundef nonnull align 8 dereferenceable(64) %9) #15
  call void @llvm.lifetime.end.p0(i64 64, ptr %9) #15
  %38 = load ptr, ptr %5, align 8, !tbaa !51
  store ptr %38, ptr %3, align 8
  call void @_ZN6icu_779ErrorCodeD1Ev(ptr noundef nonnull align 8 dereferenceable(12) %6) #15
  call void @llvm.lifetime.end.p0(i64 16, ptr %6) #15
  br label %48

39:                                               ; preds = %23, %17
  %40 = landingpad { ptr, i32 }
          cleanup
  %41 = extractvalue { ptr, i32 } %40, 0
  store ptr %41, ptr %7, align 8
  %42 = extractvalue { ptr, i32 } %40, 1
  store i32 %42, ptr %8, align 4
  br label %47

43:                                               ; preds = %34, %32, %26
  %44 = landingpad { ptr, i32 }
          cleanup
  %45 = extractvalue { ptr, i32 } %44, 0
  store ptr %45, ptr %7, align 8
  %46 = extractvalue { ptr, i32 } %44, 1
  store i32 %46, ptr %8, align 4
  call void @llvm.lifetime.end.p0(i64 64, ptr %9) #15
  br label %47

47:                                               ; preds = %43, %39
  call void @_ZN6icu_779ErrorCodeD1Ev(ptr noundef nonnull align 8 dereferenceable(12) %6) #15
  call void @llvm.lifetime.end.p0(i64 16, ptr %6) #15
  br label %50

48:                                               ; preds = %35, %14
  %49 = load ptr, ptr %3, align 8
  ret ptr %49

50:                                               ; preds = %47
  %51 = load ptr, ptr %7, align 8
  %52 = load i32, ptr %8, align 4
  %53 = insertvalue { ptr, i32 } poison, ptr %51, 0
  %54 = insertvalue { ptr, i32 } %53, i32 %52, 1
  resume { ptr, i32 } %54
}